(dp1
F12
(dp2
S'AlpgenPythia_AUET2CTEQ6L1_WqqbarNp0.mc12a'
p3
(F50.649000000000001
F1
F0.39993000000000001
tp4
sS'AlpgenPythia_AUET2CTEQ6L1_WqqbarNp1.mc12a'
p5
(F9.2691999999999997
F1
F0.77651999999999999
tp6
sS'AlpgenPythia_AUET2CTEQ6L1_WqqbarNp2.mc12a'
p7
(F2.9135
F1
F1
tp8
ss.