(dp1
S'BOOSTED'
p2
(dp3
I00
(dp4
S'TRACK'
p5
(F1.1759172604031281
F0.17029496057807456
F1.1700179056365252
F0.11040348388856243
tp6
sS'BDT'
p7
(F1.5375760237501008
F0.17436768823372381
F0.94132105475390659
F0.10833933747242422
tp8
sssS'Z'
(dp9
I00
(dp10
S'TRACK'
p11
(F1.3796229486608813
F0.10410716019717933
F1.0151206163176769
F0.1152822032599637
tp12
sS'BDT'
p13
(F1.269185518167117
F0.10010573731254092
F1.1461662489916107
F0.11396110613558447
tp14
sssS'GGF'
p15
(dp16
I00
(dp17
S'TRACK'
p18
(F1.2504200206742819
F0.039437159600547646
F1.0963510419945763
F0.087726255977241499
tp19
sS'BDT'
p20
(F1.2050876998858373
F0.029194611964042692
F1.2059938658585452
F0.064331686240628558
tp21
sssS'VBF'
p22
(dp23
I00
(dp24
S'TRACK'
p25
(F1.0495963267808304
F0.28972043929359192
F1.2728189397834742
F0.17377595034452531
tp26
sS'BDT'
p27
(F1.5037626092904379
F0.26245682387130853
F1.0166187829684266
F0.15315065714990866
tp28
sssS'PRESELECTION'
p29
(dp30
I00
(dp31
S'TRACK'
p32
(F1.2631265102681297
F0.038324445123229106
F1.0777147831288296
F0.07424400185906585
tp33
sS'BDT'
p34
(F1.233525334599141
F0.028597270239695705
F1.1384401878956814
F0.05487678054710024
tp35
sss.