(dp1
S'boosted'
p2
(dp3
I00
(F1.2262424017791955
F0.13108070063513369
F1.1273527492557938
F0.088184697661336547
tp4
sI01
(F1.0887111037472543
F0.22355052549993779
F0.89657351425286247
F0.11540505224457091
tp5
ssS'ggf'
p6
(dp7
I00
(F1.1875922864548596
F0.029298407681759963
F1.2524583795636384
F0.065114849270984085
tp8
sI01
(F1.0677798400380041
F0.072288018316063921
F1.1490840172461116
F0.12165991114455091
tp9
ssS'vbf'
p10
(dp11
I00
(F1.4228597555422946
F0.25900147364619225
F1.094072884154855
F0.15415173280035543
tp12
sI01
(F0.19197933847220608
F0.035534107543799924
F0.83683215064052352
F0.12008909775514912
tp13
ssS'preselection'
p14
(dp15
I00
(F1.2188091491513986
F0.029093019080470399
F1.174001463146445
F0.056078323823805502
tp16
sI01
(F1.1243377625332613
F0.062390282259739492
F0.9849839424556065
F0.072885442747342322
tp17
ss.