(dp1
S'boosted'
p2
(F1.069740242555298
F0.34373323660392779
tp3
sS'ggf'
p4
(F0.98302461042444489
F0.49165436039178406
tp5
sS'vbf'
p6
(F0.18695916990491732
F0.32363325182191977
tp7
sS'preselection'
p8
(F1.1243240149757912
F0.37365508574025358
tp9
s.