(dp1
S'BOOSTED'
p2
(dp3
I00
(dp4
S'TRACK'
p5
(F1.1759172604031281
F0.17029496057807456
F1.1700179056365252
F0.11040348388856243
tp6
sS'BDT'
p7
(F1.5375760237501008
F0.17436768823372381
F0.94132105475390659
F0.10833933747242422
tp8
ssI01
(dp9
S'TRACK'
p10
(F0.6363141261174694
F0.21638489216309739
F1.8037330887005436
F0.1755699441511514
tp11
sS'BDT'
p12
(F1.1362886303812263
F0.22163187412973001
F1.4313261630920444
F0.17213973342700448
tp13
sssS'Z'
(dp14
I00
(dp15
S'TRACK'
p16
(F1.3796229486608813
F0.10410716019717933
F1.0151206163176769
F0.1152822032599637
tp17
sS'BDT'
p18
(F1.269185518167117
F0.10010573731254092
F1.1461662489916107
F0.11396110613558447
tp19
ssI01
(dp20
S'TRACK'
p21
(F1.2030852019377412
F0.12349557225998684
F1.4839550274171645
F0.17013550437334227
tp22
sS'BDT'
p23
(F0.98581548758762283
F0.12727050141620525
F1.7886244311184474
F0.17991621395016399
tp24
sssS'GGF'
p25
(dp26
I00
(dp27
S'TRACK'
p28
(F1.2504200206742819
F0.039437159600547646
F1.0963510419945763
F0.087726255977241499
tp29
sS'BDT'
p30
(F1.2050876998858373
F0.029194611964042692
F1.2059938658585452
F0.064331686240628558
tp31
ssI01
(dp32
S'TRACK'
p33
(F1.1745122632932306
F0.047204511334665182
F1.4640894328486029
F0.12330712649272393
tp34
sS'BDT'
p35
(F1.0657640808326978
F0.036044253948502185
F1.7650505181339358
F0.095711973305670314
tp36
sssS'VBF'
p37
(dp38
I00
(dp39
S'TRACK'
p40
(F1.2296664610630967
F0.28841847630420459
F1.2143666200924457
F0.15821805267404992
tp41
sS'BDT'
p42
(F1.5037626092904379
F0.26245682387130853
F1.0166187829684266
F0.15315065714990866
tp43
ssI01
(dp44
S'TRACK'
p45
(F1.0553454511287559
F0.28599996578747766
F1.4523869066168242
F0.19124850352988479
tp46
sS'BDT'
p47
(F1.5047548217916444
F0.29726566082916911
F1.1526829002407895
F0.19441686604430033
tp48
sssS'PRESELECTION'
p49
(dp50
I00
(dp51
S'TRACK'
p52
(F1.2631265102681297
F0.038324445123229106
F1.0777147831288296
F0.07424400185906585
tp53
sS'BDT'
p54
(F1.233525334599141
F0.028597270239695705
F1.1384401878956814
F0.05487678054710024
tp55
ssI01
(dp56
S'TRACK'
p57
(F1.1797446520389538
F0.045649096527235297
F1.4406589773185303
F0.10431180742465425
tp58
sS'BDT'
p59
(F1.0882081060357442
F0.034659067901054295
F1.6588186296250154
F0.080382675720691341
tp60
sss.