(dp1
S'boosted'
p2
(F1.2566639911105544
F0.10284768698553706
F0.32000419866175434
F0.029906623968415431
tp3
sS'ggf'
p4
(F1.0868116042371321
F0.054459341775547246
F0.39499841907875832
F0.035295449383655496
tp5
sS'vbf'
p6
(F1.0738758277137233
F0.16833007844832576
F0.36346707473230067
F0.039783316294417823
tp7
sS'preselection'
p8
(F1.2035621507687633
F0.016258005303553185
F0.30122619966283432
F0.010227525016886228
tp9
s.