(dp1
S'boosted'
p2
(F1.2086767963962464
F0.32917998512762114
tp3
sS'ggf'
p4
(F1.2159117314394312
F0.36035756727995844
tp5
sS'vbf'
p6
(F1.1636700184534428
F0.33228703395569792
tp7
sS'preselection'
p8
(F1.2035631094140375
F0.30122559563279405
tp9
s.