(dp1
S'BOOSTED'
p2
(dp3
I00
(dp4
S'TRACK'
p5
(F1.1759172604031281
F0.17029496057807456
F1.1700179056365252
F0.11040348388856243
tp6
sS'BDT'
p7
(F1.5375760237501008
F0.17436768823372381
F0.94132105475390659
F0.10833933747242422
tp8
ssI01
(dp9
S'BDT'
p10
(F1.1362886303812263
F0.22163187412973001
F1.4313261630920444
F0.17213973342700448
tp11
sssS'Z'
(dp12
I00
(dp13
S'TRACK'
p14
(F1.3796229486608813
F0.10410716019717933
F1.0151206163176769
F0.1152822032599637
tp15
sS'BDT'
p16
(F1.269185518167117
F0.10010573731254092
F1.1461662489916107
F0.11396110613558447
tp17
ssI01
(dp18
S'BDT'
p19
(F2.2372753300445547
F0.046205032743558826
F0.014018167359793146
F0.0054710716182368472
tp20
sssS'GGF'
p21
(dp22
I00
(dp23
S'TRACK'
p24
(F1.2504200206742819
F0.039437159600547646
F1.0963510419945763
F0.087726255977241499
tp25
sS'BDT'
p26
(F1.2050876998858373
F0.029194611964042692
F1.2059938658585452
F0.064331686240628558
tp27
ssI01
(dp28
S'BDT'
p29
(F1.7004370309447079
F0.016967003538172567
F-0.0045265793388205751
F0.0068658770945168833
tp30
sssS'VBF'
p31
(dp32
I00
(dp33
S'TRACK'
p34
(F1.0495963267808304
F0.28972043929359192
F1.2728189397834742
F0.17377595034452531
tp35
sS'BDT'
p36
(F1.5037626092904379
F0.26245682387130853
F1.0166187829684266
F0.15315065714990866
tp37
ssI01
(dp38
S'BDT'
p39
(F1.5047548217916444
F0.29726566082916911
F1.1526829002407895
F0.19441686604430033
tp40
sssS'PRESELECTION'
p41
(dp42
I00
(dp43
S'TRACK'
p44
(F1.2631265102681297
F0.038324445123229106
F1.0777147831288296
F0.07424400185906585
tp45
sS'BDT'
p46
(F1.233525334599141
F0.028597270239695705
F1.1384401878956814
F0.05487678054710024
tp47
ssI01
(dp48
S'BDT'
p49
(F1.7378179103037781
F0.018847177978535228
F0.30536564216611978
F0.023158121322156389
tp50
sss.