(dp1
S'boosted'
p2
(dp3
I00
(F1.5808115730689338
F0.2034341548915487
F0.89375804058021457
F0.13994007157199337
tp4
sI01
(F1.0887111037472543
F0.22355052549993779
F0.89657351425286247
F0.11540505224457091
tp5
ssS'ggf'
p6
(dp7
I00
(F1.2533662784566766
F0.055622524486899985
F1.4257591118337731
F0.15198153351004876
tp8
sI01
(F1.0677798400380041
F0.072288018316063921
F1.1490840172461116
F0.12165991114455091
tp9
ssS'vbf'
p10
(dp11
I00
(F0.20715141824292069
F0.035707357817847486
F1.1302539562863512
F0.17407227476177739
tp12
sI01
(F0.19197933847220608
F0.035534107543799924
F0.83683215064052352
F0.12008909775514912
tp13
ssS'preselection'
p14
(dp15
I00
(F1.3086932692726685
F0.051530592655402212
F1.1965980301320285
F0.090073943364096909
tp16
sI01
(F1.1243377625332613
F0.062390282259739492
F0.9849839424556065
F0.072885442747342322
tp17
ss.