(dp1
S'boosted'
p2
(dp3
I01
(F0.16694856516625781
F0.021737196579908673
F0.96619364051200674
F0.10830298828413149
tp4
ssS'ggf'
p5
(dp6
I01
(F0.8200703698417896
F0.18586247844830794
F1.4655819517854634
F0.26199295549362717
tp7
ssS'vbf'
p8
(dp9
I01
(F0.16830008474509606
F0.029872499490475657
F0.9376214203526485
F0.11721982768782473
tp10
ssS'preselection'
p11
(dp12
I01
(F1.2187005636517094
F0.018536591047853542
F0.83857950195294806
F0.032490984894846364
tp13
ss.