(dp1
S'BOOSTED'
p2
(dp3
I00
(dp4
S'TRACK'
p5
(F1.1788339137349977
F0.20896768580302613
F0.56313015307049075
F0.068892899086382686
tp6
sS'BDT'
p7
(F1.2260809040701413
F0.13628987247913318
F1.1274787619526911
F0.089623207328377377
tp8
sssS'Z'
(dp9
I00
(dp10
S'TRACK'
p11
(F-8.5396148265365229e-05
F0.047791079836822105
F2.5715431453533233
F0.07659558560983909
tp12
sS'BDT'
p13
(F1.18260582461186
F0.072297784392216957
F1.2444220714397243
F0.081699903177505098
tp14
sssS'GGF'
p15
(dp16
I00
(dp17
S'TRACK'
p18
(F1.3394218294140212
F0.060392717848769109
F0.45345333031175111
F0.064514033571769741
tp19
sS'BDT'
p20
(F1.188271529952257
F0.02920054746430864
F1.2515082325551974
F0.064951552259764275
tp21
sssS'VBF'
p22
(dp23
I00
(dp24
S'TRACK'
p25
(F1.1981850055745196
F0.5302669303506109
F1.1880971131378475
F0.30744003145297027
tp26
sS'BDT'
p27
(F1.5438103181437086
F0.058188606323626116
F0.99938758229787028
F0.12546366187655292
tp28
sssS'PRESELECTION'
p29
(dp30
I00
(dp31
S'TRACK'
p32
(F1.1394976346241041
F0.15700309412153549
F1.3319940831273329
F0.32376015880172998
tp33
sS'BDT'
p34
(F1.2210932955107494
F0.029207064040024894
F1.1678313023532845
F0.056481796895968606
tp35
sss.