(dp1
S'boosted'
p2
(dp3
I00
(F0.1915601435933004
F0.019164274110786288
F1.041066082490619
F0.11675105916920349
tp4
sI01
(F0.16694856516625781
F0.021737196579908673
F0.96619364051200674
F0.10830298828413149
tp5
ssS'ggf'
p6
(dp7
I00
(F1.1834978336206556
F0.1012308400513945
F1.4801093443004205
F0.21380214852657733
tp8
sI01
(F0.8200703698417896
F0.18586247844830794
F1.4655819517854634
F0.26199295549362717
tp9
ssS'vbf'
p10
(dp11
I00
(F0.18506013059380827
F0.012569293783609615
F1.2095979614080552
F0.059064647718608719
tp12
sI01
(F0.16830008474509606
F0.029872499490475657
F0.9376214203526485
F0.11721982768782473
tp13
ssS'preselection'
p14
(dp15
I00
(F1.3087670814599959
F0.015223822143823375
F1.1582630249543813
F0.043845821726946822
tp16
sI01
(F1.2187005636517094
F0.018536591047853542
F0.83857950195294806
F0.032490984894846364
tp17
ss.