(dp1
S'boosted'
p2
(dp3
I00
(F1.7117118651573928
F0.17945238864340804
F0.80421779571915664
F0.11620653417325562
tp4
sI01
(F0.16694856516625781
F0.021737196579908673
F0.96619364051200674
F0.10830298828413149
tp5
ssS'ggf'
p6
(dp7
I00
(F1.2413401607280239
F0.062203270896341513
F1.3919579928622381
F0.17789045841146309
tp8
sI01
(F0.8200703698417896
F0.18586247844830794
F1.4655819517854634
F0.26199295549362717
tp9
ssS'vbf'
p10
(dp11
I00
(F0.20940370111848197
F0.033537977352199544
F1.1079416894472505
F0.15580801668082567
tp12
sI01
(F0.16830008474509606
F0.029872499490475657
F0.9376214203526485
F0.11721982768782473
tp13
ssS'preselection'
p14
(dp15
I00
(F1.303224335634422
F0.057932645366729936
F1.1570409929601797
F0.10138528325054227
tp16
sI01
(F1.2187005636517094
F0.018536591047853542
F0.83857950195294806
F0.032490984894846364
tp17
ss.