(dp1
S'BOOSTED'
p2
(dp3
I00
(dp4
S'TRACK'
p5
(F1.1759172604031281
F0.17029496057807456
F1.1700179056365252
F0.11040348388856243
tp6
sS'BDT'
p7
(F1.226354376394214
F0.14149668692758344
F1.1345858590019868
F0.094336085185905291
tp8
sssS'Z'
(dp9
I00
(dp10
S'TRACK'
p11
(F1.3796229486608813
F0.10410716019717933
F1.0151206163176769
F0.1152822032599637
tp12
sS'BDT'
p13
(F1.1918139685098414
F0.02963996276177628
F1.235873706584419
F0.019774211213921724
tp14
sssS'GGF'
p15
(dp16
I00
(dp17
S'TRACK'
p18
(F1.2504200206742819
F0.039437159600547646
F1.0963510419945763
F0.087726255977241499
tp19
sS'BDT'
p20
(F1.1966212529545484
F0.028932911545767628
F1.2264930073649312
F0.063851530031836204
tp21
sssS'VBF'
p22
(dp23
I00
(dp24
S'TRACK'
p25
(F1.0495963267808304
F0.28972043929359192
F1.2728189397834742
F0.17377595034452531
tp26
sS'BDT'
p27
(F1.5686273829898203
F0.29712963282976085
F0.97930123034947358
F0.17817010563193938
tp28
sssS'PRESELECTION'
p29
(dp30
I00
(dp31
S'TRACK'
p32
(F1.2631265102681297
F0.038324445123229106
F1.0777147831288296
F0.07424400185906585
tp33
sS'BDT'
p34
(F1.2294625277115823
F0.028779100639172057
F1.1469849153088574
F0.055295536614238014
tp35
sss.