(dp1
S'boosted'
p2
(F1.2566797202094908
F0.10738449304668037
F84.365767478075213
F8.2262626585068563
tp3
sS'ggf'
p4
(F1.0868254869781424
F0.053162842466573539
F104.13628985211869
F9.0810613210735447
tp5
sS'vbf'
p6
(F1.0738758277137233
F0.16833007844832576
F0.36346707473230067
F0.039783316294417823
tp7
sS'preselection'
p8
(F1.2035621507687633
F0.016258005303553185
F0.30122619966283432
F0.010227525016886228
tp9
s.